target datalayout = "e-m:e-p270:32:32-p271:32:32-p272:64:64-i64:64-i128:128-f80:128-n8:16:32:64-S128"
target triple = "x86_64-pc-linux-gnu"

%struct.mbedtls_asn1_buf = type { i32, i64, ptr }
%struct.mbedtls_asn1_named_data = type { %struct.mbedtls_asn1_buf, %struct.mbedtls_asn1_buf, ptr, i8 }

@.str = private unnamed_addr constant [118 x i8] c"generated/home/dtcxzyw/WorkSpace/Projects/compilers/llvm-opt-benchmark/bench/lief/bench_build/mbed_src/library/x509.c\00", align 1

; Function Attrs: nounwind uwtable
define internal i32 @x509_get_attr_type_value(ptr noundef %0, ptr noundef %1, ptr noundef %2) #0 {
  %4 = alloca i32, align 4
  %5 = alloca ptr, align 8
  %6 = alloca ptr, align 8
  %7 = alloca ptr, align 8
  %8 = alloca i32, align 4
  %9 = alloca i64, align 8
  %10 = alloca ptr, align 8
  %11 = alloca ptr, align 8
  %12 = alloca i32, align 4
  store ptr %0, ptr %5, align 8, !tbaa !3
  store ptr %1, ptr %6, align 8, !tbaa !9
  store ptr %2, ptr %7, align 8, !tbaa !25
  call void @llvm.lifetime.start.p0(i64 4, ptr %8) #9
  store i32 -110, ptr %8, align 4, !tbaa !13
  call void @llvm.lifetime.start.p0(i64 8, ptr %9) #9
  call void @llvm.lifetime.start.p0(i64 8, ptr %10) #9
  call void @llvm.lifetime.start.p0(i64 8, ptr %11) #9
  %13 = load ptr, ptr %5, align 8, !tbaa !3
  %14 = load ptr, ptr %6, align 8, !tbaa !9
  %15 = call i32 @mbedtls_asn1_get_tag(ptr noundef %13, ptr noundef %14, ptr noundef %9, i32 noundef 48)
  store i32 %15, ptr %8, align 4, !tbaa !13
  %16 = icmp ne i32 %15, 0
  br i1 %16, label %17, label %20

17:                                               ; preds = %3
  %18 = load i32, ptr %8, align 4, !tbaa !13
  %19 = call i32 @mbedtls_error_add(i32 noundef -9088, i32 noundef %18, ptr noundef @.str, i32 noundef 417)
  store i32 %19, ptr %4, align 4
  store i32 1, ptr %12, align 4
  br label %155

20:                                               ; preds = %3
  %21 = load ptr, ptr %5, align 8, !tbaa !3
  %22 = load ptr, ptr %21, align 8, !tbaa !9
  %23 = load i64, ptr %9, align 8, !tbaa !24
  %24 = getelementptr inbounds nuw i8, ptr %22, i64 %23
  store ptr %24, ptr %6, align 8, !tbaa !9
  %25 = load ptr, ptr %6, align 8, !tbaa !9
  %26 = load ptr, ptr %5, align 8, !tbaa !3
  %27 = load ptr, ptr %26, align 8, !tbaa !9
  %28 = ptrtoint ptr %25 to i64
  %29 = ptrtoint ptr %27 to i64
  %30 = sub i64 %28, %29
  %31 = icmp slt i64 %30, 1
  br i1 %31, label %32, label %34

32:                                               ; preds = %20
  %33 = call i32 @mbedtls_error_add(i32 noundef -9088, i32 noundef -96, ptr noundef @.str, i32 noundef 424)
  store i32 %33, ptr %4, align 4
  store i32 1, ptr %12, align 4
  br label %155

34:                                               ; preds = %20
  %35 = load ptr, ptr %7, align 8, !tbaa !25
  %36 = getelementptr inbounds nuw %struct.mbedtls_asn1_named_data, ptr %35, i32 0, i32 0
  store ptr %36, ptr %10, align 8, !tbaa !11
  %37 = load ptr, ptr %5, align 8, !tbaa !3
  %38 = load ptr, ptr %37, align 8, !tbaa !9
  %39 = load i8, ptr %38, align 1, !tbaa !15
  %40 = zext i8 %39 to i32
  %41 = load ptr, ptr %10, align 8, !tbaa !11
  %42 = getelementptr inbounds nuw %struct.mbedtls_asn1_buf, ptr %41, i32 0, i32 0
  store i32 %40, ptr %42, align 8, !tbaa !16
  %43 = load ptr, ptr %5, align 8, !tbaa !3
  %44 = load ptr, ptr %6, align 8, !tbaa !9
  %45 = load ptr, ptr %10, align 8, !tbaa !11
  %46 = getelementptr inbounds nuw %struct.mbedtls_asn1_buf, ptr %45, i32 0, i32 1
  %47 = call i32 @mbedtls_asn1_get_tag(ptr noundef %43, ptr noundef %44, ptr noundef %46, i32 noundef 6)
  store i32 %47, ptr %8, align 4, !tbaa !13
  %48 = icmp ne i32 %47, 0
  br i1 %48, label %49, label %52

49:                                               ; preds = %34
  %50 = load i32, ptr %8, align 4, !tbaa !13
  %51 = call i32 @mbedtls_error_add(i32 noundef -9088, i32 noundef %50, ptr noundef @.str, i32 noundef 431)
  store i32 %51, ptr %4, align 4
  store i32 1, ptr %12, align 4
  br label %155

52:                                               ; preds = %34
  %53 = load ptr, ptr %5, align 8, !tbaa !3
  %54 = load ptr, ptr %53, align 8, !tbaa !9
  %55 = load ptr, ptr %10, align 8, !tbaa !11
  %56 = getelementptr inbounds nuw %struct.mbedtls_asn1_buf, ptr %55, i32 0, i32 2
  store ptr %54, ptr %56, align 8, !tbaa !19
  %57 = load ptr, ptr %10, align 8, !tbaa !11
  %58 = getelementptr inbounds nuw %struct.mbedtls_asn1_buf, ptr %57, i32 0, i32 1
  %59 = load i64, ptr %58, align 8, !tbaa !20
  %60 = load ptr, ptr %5, align 8, !tbaa !3
  %61 = load ptr, ptr %60, align 8, !tbaa !9
  %62 = getelementptr inbounds nuw i8, ptr %61, i64 %59
  store ptr %62, ptr %60, align 8, !tbaa !9
  %63 = load ptr, ptr %6, align 8, !tbaa !9
  %64 = load ptr, ptr %5, align 8, !tbaa !3
  %65 = load ptr, ptr %64, align 8, !tbaa !9
  %66 = ptrtoint ptr %63 to i64
  %67 = ptrtoint ptr %65 to i64
  %68 = sub i64 %66, %67
  %69 = icmp slt i64 %68, 1
  br i1 %69, label %70, label %72

70:                                               ; preds = %52
  %71 = call i32 @mbedtls_error_add(i32 noundef -9088, i32 noundef -96, ptr noundef @.str, i32 noundef 439)
  store i32 %71, ptr %4, align 4
  store i32 1, ptr %12, align 4
  br label %155

72:                                               ; preds = %52
  %73 = load ptr, ptr %5, align 8, !tbaa !3
  %74 = load ptr, ptr %73, align 8, !tbaa !9
  %75 = load i8, ptr %74, align 1, !tbaa !15
  %76 = zext i8 %75 to i32
  %77 = icmp ne i32 %76, 30
  br i1 %77, label %78, label %116

78:                                               ; preds = %72
  %79 = load ptr, ptr %5, align 8, !tbaa !3
  %80 = load ptr, ptr %79, align 8, !tbaa !9
  %81 = load i8, ptr %80, align 1, !tbaa !15
  %82 = zext i8 %81 to i32
  %83 = icmp ne i32 %82, 12
  br i1 %83, label %84, label %116

84:                                               ; preds = %78
  %85 = load ptr, ptr %5, align 8, !tbaa !3
  %86 = load ptr, ptr %85, align 8, !tbaa !9
  %87 = load i8, ptr %86, align 1, !tbaa !15
  %88 = zext i8 %87 to i32
  %89 = icmp ne i32 %88, 20
  br i1 %89, label %90, label %116

90:                                               ; preds = %84
  %91 = load ptr, ptr %5, align 8, !tbaa !3
  %92 = load ptr, ptr %91, align 8, !tbaa !9
  %93 = load i8, ptr %92, align 1, !tbaa !15
  %94 = zext i8 %93 to i32
  %95 = icmp ne i32 %94, 19
  br i1 %95, label %96, label %116

96:                                               ; preds = %90
  %97 = load ptr, ptr %5, align 8, !tbaa !3
  %98 = load ptr, ptr %97, align 8, !tbaa !9
  %99 = load i8, ptr %98, align 1, !tbaa !15
  %100 = zext i8 %99 to i32
  %101 = icmp ne i32 %100, 22
  br i1 %101, label %102, label %116

102:                                              ; preds = %96
  %103 = load ptr, ptr %5, align 8, !tbaa !3
  %104 = load ptr, ptr %103, align 8, !tbaa !9
  %105 = load i8, ptr %104, align 1, !tbaa !15
  %106 = zext i8 %105 to i32
  %107 = icmp ne i32 %106, 28
  br i1 %107, label %108, label %116

108:                                              ; preds = %102
  %109 = load ptr, ptr %5, align 8, !tbaa !3
  %110 = load ptr, ptr %109, align 8, !tbaa !9
  %111 = load i8, ptr %110, align 1, !tbaa !15
  %112 = zext i8 %111 to i32
  %113 = icmp ne i32 %112, 3
  br i1 %113, label %114, label %116

114:                                              ; preds = %108
  %115 = call i32 @mbedtls_error_add(i32 noundef -9088, i32 noundef -98, ptr noundef @.str, i32 noundef 447)
  store i32 %115, ptr %4, align 4
  store i32 1, ptr %12, align 4
  br label %155

116:                                              ; preds = %108, %102, %96, %90, %84, %78, %72
  %117 = load ptr, ptr %7, align 8, !tbaa !25
  %118 = getelementptr inbounds nuw %struct.mbedtls_asn1_named_data, ptr %117, i32 0, i32 1
  store ptr %118, ptr %11, align 8, !tbaa !11
  %119 = load ptr, ptr %5, align 8, !tbaa !3
  %120 = load ptr, ptr %119, align 8, !tbaa !9
  %121 = getelementptr inbounds nuw i8, ptr %120, i32 1
  store ptr %121, ptr %119, align 8, !tbaa !9
  %122 = load i8, ptr %120, align 1, !tbaa !15
  %123 = zext i8 %122 to i32
  %124 = load ptr, ptr %11, align 8, !tbaa !11
  %125 = getelementptr inbounds nuw %struct.mbedtls_asn1_buf, ptr %124, i32 0, i32 0
  store i32 %123, ptr %125, align 8, !tbaa !16
  %126 = load ptr, ptr %5, align 8, !tbaa !3
  %127 = load ptr, ptr %6, align 8, !tbaa !9
  %128 = load ptr, ptr %11, align 8, !tbaa !11
  %129 = getelementptr inbounds nuw %struct.mbedtls_asn1_buf, ptr %128, i32 0, i32 1
  %130 = call i32 @mbedtls_asn1_get_len(ptr noundef %126, ptr noundef %127, ptr noundef %129)
  store i32 %130, ptr %8, align 4, !tbaa !13
  %131 = icmp ne i32 %130, 0
  br i1 %131, label %132, label %135

132:                                              ; preds = %116
  %133 = load i32, ptr %8, align 4, !tbaa !13
  %134 = call i32 @mbedtls_error_add(i32 noundef -9088, i32 noundef %133, ptr noundef @.str, i32 noundef 454)
  store i32 %134, ptr %4, align 4
  store i32 1, ptr %12, align 4
  br label %155

135:                                              ; preds = %116
  %136 = load ptr, ptr %5, align 8, !tbaa !3
  %137 = load ptr, ptr %136, align 8, !tbaa !9
  %138 = load ptr, ptr %11, align 8, !tbaa !11
  %139 = getelementptr inbounds nuw %struct.mbedtls_asn1_buf, ptr %138, i32 0, i32 2
  store ptr %137, ptr %139, align 8, !tbaa !19
  %140 = load ptr, ptr %11, align 8, !tbaa !11
  %141 = getelementptr inbounds nuw %struct.mbedtls_asn1_buf, ptr %140, i32 0, i32 1
  %142 = load i64, ptr %141, align 8, !tbaa !20
  %143 = load ptr, ptr %5, align 8, !tbaa !3
  %144 = load ptr, ptr %143, align 8, !tbaa !9
  %145 = getelementptr inbounds nuw i8, ptr %144, i64 %142
  store ptr %145, ptr %143, align 8, !tbaa !9
  %146 = load ptr, ptr %5, align 8, !tbaa !3
  %147 = load ptr, ptr %146, align 8, !tbaa !9
  %148 = load ptr, ptr %6, align 8, !tbaa !9
  %149 = icmp ne ptr %147, %148
  br i1 %149, label %150, label %152

150:                                              ; preds = %135
  %151 = call i32 @mbedtls_error_add(i32 noundef -9088, i32 noundef -102, ptr noundef @.str, i32 noundef 462)
  store i32 %151, ptr %4, align 4
  store i32 1, ptr %12, align 4
  br label %155

152:                                              ; preds = %135
  %153 = load ptr, ptr %7, align 8, !tbaa !25
  %154 = getelementptr inbounds nuw %struct.mbedtls_asn1_named_data, ptr %153, i32 0, i32 2
  store ptr null, ptr %154, align 8, !tbaa !29
  store i32 0, ptr %4, align 4
  store i32 1, ptr %12, align 4
  br label %155

155:                                              ; preds = %152, %150, %132, %114, %70, %49, %32, %17
  call void @llvm.lifetime.end.p0(i64 8, ptr %11) #9
  call void @llvm.lifetime.end.p0(i64 8, ptr %10) #9
  call void @llvm.lifetime.end.p0(i64 8, ptr %9) #9
  call void @llvm.lifetime.end.p0(i64 4, ptr %8) #9
  %156 = load i32, ptr %4, align 4
  ret i32 %156
}

; Function Attrs: inlinehint nounwind uwtable
define internal i32 @mbedtls_error_add(i32 noundef %0, i32 noundef %1, ptr noundef %2, i32 noundef %3) #2 {
  %5 = alloca i32, align 4
  %6 = alloca i32, align 4
  %7 = alloca ptr, align 8
  %8 = alloca i32, align 4
  store i32 %0, ptr %5, align 4, !tbaa !13
  store i32 %1, ptr %6, align 4, !tbaa !13
  store ptr %2, ptr %7, align 8, !tbaa !9
  store i32 %3, ptr %8, align 4, !tbaa !13
  %9 = load i32, ptr %5, align 4, !tbaa !13
  %10 = load i32, ptr %6, align 4, !tbaa !13
  %11 = add nsw i32 %9, %10
  ret i32 %11
}

; Function Attrs: nounwind uwtable
define hidden i32 @mbedtls_x509_get_name(ptr noundef %0, ptr noundef %1, ptr noundef %2) #0 {
  %4 = alloca i32, align 4
  %5 = alloca ptr, align 8
  %6 = alloca ptr, align 8
  %7 = alloca ptr, align 8
  %8 = alloca i32, align 4
  %9 = alloca i64, align 8
  %10 = alloca ptr, align 8
  %11 = alloca ptr, align 8
  %12 = alloca i32, align 4
  store ptr %0, ptr %5, align 8, !tbaa !3
  store ptr %1, ptr %6, align 8, !tbaa !9
  store ptr %2, ptr %7, align 8, !tbaa !25
  call void @llvm.lifetime.start.p0(i64 4, ptr %8) #9
  store i32 -110, ptr %8, align 4, !tbaa !13
  call void @llvm.lifetime.start.p0(i64 8, ptr %9) #9
  call void @llvm.lifetime.start.p0(i64 8, ptr %10) #9
  call void @llvm.lifetime.start.p0(i64 8, ptr %11) #9
  %13 = load ptr, ptr %7, align 8, !tbaa !25
  store ptr %13, ptr %11, align 8, !tbaa !25
  br label %14

14:                                               ; preds = %72, %3
  br label %15

15:                                               ; preds = %14
  %16 = load ptr, ptr %5, align 8, !tbaa !3
  %17 = load ptr, ptr %6, align 8, !tbaa !9
  %18 = call i32 @mbedtls_asn1_get_tag(ptr noundef %16, ptr noundef %17, ptr noundef %9, i32 noundef 49)
  store i32 %18, ptr %8, align 4, !tbaa !13
  %19 = icmp ne i32 %18, 0
  br i1 %19, label %20, label %23

20:                                               ; preds = %15
  %21 = load i32, ptr %8, align 4, !tbaa !13
  %22 = call i32 @mbedtls_error_add(i32 noundef -9088, i32 noundef %21, ptr noundef @.str, i32 noundef 513)
  store i32 %22, ptr %8, align 4, !tbaa !13
  br label %76

23:                                               ; preds = %15
  %24 = load ptr, ptr %5, align 8, !tbaa !3
  %25 = load ptr, ptr %24, align 8, !tbaa !9
  %26 = load i64, ptr %9, align 8, !tbaa !24
  %27 = getelementptr inbounds nuw i8, ptr %25, i64 %26
  store ptr %27, ptr %10, align 8, !tbaa !9
  br label %28

28:                                               ; preds = %53, %23
  br label %29

29:                                               ; preds = %28
  %30 = load ptr, ptr %5, align 8, !tbaa !3
  %31 = load ptr, ptr %10, align 8, !tbaa !9
  %32 = load ptr, ptr %7, align 8, !tbaa !25
  %33 = call i32 @x509_get_attr_type_value(ptr noundef %30, ptr noundef %31, ptr noundef %32)
  store i32 %33, ptr %8, align 4, !tbaa !13
  %34 = icmp ne i32 %33, 0
  br i1 %34, label %35, label %36

35:                                               ; preds = %29
  br label %76

36:                                               ; preds = %29
  %37 = load ptr, ptr %5, align 8, !tbaa !3
  %38 = load ptr, ptr %37, align 8, !tbaa !9
  %39 = load ptr, ptr %10, align 8, !tbaa !9
  %40 = icmp eq ptr %38, %39
  br i1 %40, label %41, label %42

41:                                               ; preds = %36
  br label %57

42:                                               ; preds = %36
  %43 = load ptr, ptr %7, align 8, !tbaa !25
  %44 = getelementptr inbounds nuw %struct.mbedtls_asn1_named_data, ptr %43, i32 0, i32 3
  store i8 1, ptr %44, align 8, !tbaa !27
  %45 = call noalias ptr @calloc(i64 noundef 1, i64 noundef 64) #11
  %46 = load ptr, ptr %7, align 8, !tbaa !25
  %47 = getelementptr inbounds nuw %struct.mbedtls_asn1_named_data, ptr %46, i32 0, i32 2
  store ptr %45, ptr %47, align 8, !tbaa !29
  %48 = load ptr, ptr %7, align 8, !tbaa !25
  %49 = getelementptr inbounds nuw %struct.mbedtls_asn1_named_data, ptr %48, i32 0, i32 2
  %50 = load ptr, ptr %49, align 8, !tbaa !29
  %51 = icmp eq ptr %50, null
  br i1 %51, label %52, label %53

52:                                               ; preds = %42
  store i32 -10368, ptr %8, align 4, !tbaa !13
  br label %76

53:                                               ; preds = %42
  %54 = load ptr, ptr %7, align 8, !tbaa !25
  %55 = getelementptr inbounds nuw %struct.mbedtls_asn1_named_data, ptr %54, i32 0, i32 2
  %56 = load ptr, ptr %55, align 8, !tbaa !29
  store ptr %56, ptr %7, align 8, !tbaa !25
  br label %28

57:                                               ; preds = %41
  %58 = load ptr, ptr %5, align 8, !tbaa !3
  %59 = load ptr, ptr %58, align 8, !tbaa !9
  %60 = load ptr, ptr %6, align 8, !tbaa !9
  %61 = icmp eq ptr %59, %60
  br i1 %61, label %62, label %63

62:                                               ; preds = %57
  store i32 0, ptr %4, align 4
  store i32 1, ptr %12, align 4
  br label %83

63:                                               ; preds = %57
  %64 = call noalias ptr @calloc(i64 noundef 1, i64 noundef 64) #11
  %65 = load ptr, ptr %7, align 8, !tbaa !25
  %66 = getelementptr inbounds nuw %struct.mbedtls_asn1_named_data, ptr %65, i32 0, i32 2
  store ptr %64, ptr %66, align 8, !tbaa !29
  %67 = load ptr, ptr %7, align 8, !tbaa !25
  %68 = getelementptr inbounds nuw %struct.mbedtls_asn1_named_data, ptr %67, i32 0, i32 2
  %69 = load ptr, ptr %68, align 8, !tbaa !29
  %70 = icmp eq ptr %69, null
  br i1 %70, label %71, label %72

71:                                               ; preds = %63
  store i32 -10368, ptr %8, align 4, !tbaa !13
  br label %76

72:                                               ; preds = %63
  %73 = load ptr, ptr %7, align 8, !tbaa !25
  %74 = getelementptr inbounds nuw %struct.mbedtls_asn1_named_data, ptr %73, i32 0, i32 2
  %75 = load ptr, ptr %74, align 8, !tbaa !29
  store ptr %75, ptr %7, align 8, !tbaa !25
  br label %14

76:                                               ; preds = %71, %52, %35, %20
  %77 = load ptr, ptr %11, align 8, !tbaa !25
  %78 = getelementptr inbounds nuw %struct.mbedtls_asn1_named_data, ptr %77, i32 0, i32 2
  %79 = load ptr, ptr %78, align 8, !tbaa !29
  call void @mbedtls_asn1_free_named_data_list_shallow(ptr noundef %79)
  %80 = load ptr, ptr %11, align 8, !tbaa !25
  %81 = getelementptr inbounds nuw %struct.mbedtls_asn1_named_data, ptr %80, i32 0, i32 2
  store ptr null, ptr %81, align 8, !tbaa !29
  %82 = load i32, ptr %8, align 4, !tbaa !13
  store i32 %82, ptr %4, align 4
  store i32 1, ptr %12, align 4
  br label %83

83:                                               ; preds = %76, %62
  call void @llvm.lifetime.end.p0(i64 8, ptr %11) #9
  call void @llvm.lifetime.end.p0(i64 8, ptr %10) #9
  call void @llvm.lifetime.end.p0(i64 8, ptr %9) #9
  call void @llvm.lifetime.end.p0(i64 4, ptr %8) #9
  %84 = load i32, ptr %4, align 4
  ret i32 %84
}