; Function Attrs: nounwind uwtable
define hidden range(i32 -2147483648, 2147474560) i32 @mbedtls_x509_get_name(ptr noundef %0, ptr noundef %1, ptr noundef %2) local_unnamed_addr #0 {
  %4 = alloca i64, align 8
  %5 = alloca i64, align 8
  call void @llvm.lifetime.start.p0(i64 8, ptr nonnull %5) #13
  br label %6

6:                                                ; preds = %60, %3
  %.022 = phi ptr [ %2, %3 ], [ %61, %60 ]
  %7 = call i32 @mbedtls_asn1_get_tag(ptr noundef %0, ptr noundef %1, ptr noundef nonnull %5, i32 noundef 49) #13
  %.not = icmp eq i32 %7, 0
  br i1 %.not, label %10, label %8

8:                                                ; preds = %6
  %9 = add nsw i32 %7, -9088
  br label %.loopexit

10:                                               ; preds = %6
  %11 = load ptr, ptr %0, align 8, !tbaa !3
  %12 = load i64, ptr %5, align 8, !tbaa !16
  %13 = getelementptr inbounds nuw i8, ptr %11, i64 %12
  br label %14

14:                                               ; preds = %53, %10
  %.1 = phi ptr [ %.022, %10 ], [ %55, %53 ]
  call void @llvm.lifetime.start.p0(i64 8, ptr nonnull %4) #13
  %15 = call i32 @mbedtls_asn1_get_tag(ptr noundef nonnull %0, ptr noundef %13, ptr noundef nonnull %4, i32 noundef 48) #13
  %.not.i = icmp eq i32 %15, 0
  br i1 %.not.i, label %16, label %x509_get_attr_type_value.exit

16:                                               ; preds = %14
  %17 = load ptr, ptr %0, align 8, !tbaa !3
  %18 = load i64, ptr %4, align 8, !tbaa !16
  %19 = getelementptr inbounds nuw i8, ptr %17, i64 %18
  %20 = ptrtoint ptr %19 to i64
  %21 = icmp slt i64 %18, 1
  br i1 %21, label %x509_get_attr_type_value.exit.thread, label %22

22:                                               ; preds = %16
  %23 = load i8, ptr %17, align 1, !tbaa !8
  %24 = zext i8 %23 to i32
  store i32 %24, ptr %.1, align 8, !tbaa !9
  %25 = getelementptr inbounds nuw i8, ptr %.1, i64 8
  %26 = call i32 @mbedtls_asn1_get_tag(ptr noundef nonnull %0, ptr noundef nonnull %19, ptr noundef nonnull %25, i32 noundef 6) #13
  %.not44.i = icmp eq i32 %26, 0
  br i1 %.not44.i, label %27, label %x509_get_attr_type_value.exit

27:                                               ; preds = %22
  %28 = load ptr, ptr %0, align 8, !tbaa !3
  %29 = getelementptr inbounds nuw i8, ptr %.1, i64 16
  store ptr %28, ptr %29, align 8, !tbaa !13
  %30 = load i64, ptr %25, align 8, !tbaa !14
  %31 = getelementptr inbounds nuw i8, ptr %28, i64 %30
  store ptr %31, ptr %0, align 8, !tbaa !3
  %32 = ptrtoint ptr %31 to i64
  %33 = sub i64 %20, %32
  %34 = icmp slt i64 %33, 1
  br i1 %34, label %x509_get_attr_type_value.exit.thread, label %35

35:                                               ; preds = %27
  %36 = load i8, ptr %31, align 1, !tbaa !8
  switch i8 %36, label %x509_get_attr_type_value.exit.thread [
    i8 30, label %37
    i8 12, label %37
    i8 20, label %37
    i8 19, label %37
    i8 22, label %37
    i8 28, label %37
    i8 3, label %37
  ]

37:                                               ; preds = %35, %35, %35, %35, %35, %35, %35
  %38 = getelementptr inbounds nuw i8, ptr %.1, i64 24
  %39 = getelementptr inbounds nuw i8, ptr %31, i64 1
  store ptr %39, ptr %0, align 8, !tbaa !3
  %40 = load i8, ptr %31, align 1, !tbaa !8
  %41 = zext i8 %40 to i32
  store i32 %41, ptr %38, align 8, !tbaa !9
  %42 = getelementptr inbounds nuw i8, ptr %.1, i64 32
  %43 = call i32 @mbedtls_asn1_get_len(ptr noundef nonnull %0, ptr noundef nonnull %19, ptr noundef nonnull %42) #13
  %.not52.i = icmp eq i32 %43, 0
  br i1 %.not52.i, label %44, label %x509_get_attr_type_value.exit

44:                                               ; preds = %37
  %45 = load ptr, ptr %0, align 8, !tbaa !3
  %46 = getelementptr inbounds nuw i8, ptr %.1, i64 40
  store ptr %45, ptr %46, align 8, !tbaa !13
  %47 = load i64, ptr %42, align 8, !tbaa !14
  %48 = getelementptr inbounds nuw i8, ptr %45, i64 %47
  store ptr %48, ptr %0, align 8, !tbaa !3
  %.not53.i = icmp eq ptr %48, %19
  br i1 %.not53.i, label %x509_get_attr_type_value.exit.thread32, label %x509_get_attr_type_value.exit.thread

x509_get_attr_type_value.exit.thread32:           ; preds = %44
  %49 = getelementptr inbounds nuw i8, ptr %.1, i64 48
  store ptr null, ptr %49, align 8, !tbaa !17
  call void @llvm.lifetime.end.p0(i64 8, ptr nonnull %4) #13
  br label %50

x509_get_attr_type_value.exit.thread:             ; preds = %16, %27, %35, %44
  %.0.i.ph = phi i32 [ -9190, %44 ], [ -9186, %35 ], [ -9184, %27 ], [ -9184, %16 ]
  call void @llvm.lifetime.end.p0(i64 8, ptr nonnull %4) #13
  br label %.loopexit

x509_get_attr_type_value.exit:                    ; preds = %37, %22, %14
  %.0.i.in = phi i32 [ %15, %14 ], [ %26, %22 ], [ %43, %37 ]
  %.0.i = add nsw i32 %.0.i.in, -9088
  call void @llvm.lifetime.end.p0(i64 8, ptr nonnull %4) #13
  %.not29 = icmp eq i32 %.0.i, 0
  br i1 %.not29, label %x509_get_attr_type_value.exit._crit_edge, label %.loopexit

x509_get_attr_type_value.exit._crit_edge:         ; preds = %x509_get_attr_type_value.exit
  %.pre = load ptr, ptr %0, align 8, !tbaa !3
  br label %50

50:                                               ; preds = %x509_get_attr_type_value.exit._crit_edge, %x509_get_attr_type_value.exit.thread32
  %51 = phi ptr [ %.pre, %x509_get_attr_type_value.exit._crit_edge ], [ %19, %x509_get_attr_type_value.exit.thread32 ]
  %52 = icmp eq ptr %51, %13
  br i1 %52, label %58, label %53

53:                                               ; preds = %50
  %54 = getelementptr inbounds nuw i8, ptr %.1, i64 56
  store i8 1, ptr %54, align 8, !tbaa !20
  %55 = call noalias dereferenceable_or_null(64) ptr @calloc(i64 noundef 1, i64 noundef 64) #14
  %56 = getelementptr inbounds nuw i8, ptr %.1, i64 48
  store ptr %55, ptr %56, align 8, !tbaa !17
  %57 = icmp eq ptr %55, null
  br i1 %57, label %.loopexit, label %14

58:                                               ; preds = %50
  %59 = icmp eq ptr %13, %1
  br i1 %59, label %.loopexit35, label %60

60:                                               ; preds = %58
  %61 = call noalias dereferenceable_or_null(64) ptr @calloc(i64 noundef 1, i64 noundef 64) #14
  %62 = getelementptr inbounds nuw i8, ptr %.1, i64 48
  store ptr %61, ptr %62, align 8, !tbaa !17
  %63 = icmp eq ptr %61, null
  br i1 %63, label %.loopexit, label %6

.loopexit:                                        ; preds = %60, %53, %x509_get_attr_type_value.exit, %x509_get_attr_type_value.exit.thread, %8
  %.023 = phi i32 [ %9, %8 ], [ %.0.i.ph, %x509_get_attr_type_value.exit.thread ], [ -10368, %53 ], [ %.0.i, %x509_get_attr_type_value.exit ], [ -10368, %60 ]
  %64 = getelementptr inbounds nuw i8, ptr %2, i64 48
  %65 = load ptr, ptr %64, align 8, !tbaa !17
  call void @mbedtls_asn1_free_named_data_list_shallow(ptr noundef %65) #13
  store ptr null, ptr %64, align 8, !tbaa !17
  br label %.loopexit35

.loopexit35:                                      ; preds = %58, %.loopexit
  %.0 = phi i32 [ %.023, %.loopexit ], [ 0, %58 ]
  call void @llvm.lifetime.end.p0(i64 8, ptr nonnull %5) #13
  ret i32 %.0
}